ARM GAS  C:\Users\Sanjay\AppData\Local\Temp\cckg63rX.s 			page 1


   1              		.cpu cortex-m0
   2              		.fpu softvfp
   3              		.eabi_attribute 20, 1
   4              		.eabi_attribute 21, 1
   5              		.eabi_attribute 23, 3
   6              		.eabi_attribute 24, 1
   7              		.eabi_attribute 25, 1
   8              		.eabi_attribute 26, 1
   9              		.eabi_attribute 30, 1
  10              		.eabi_attribute 34, 0
  11              		.eabi_attribute 18, 4
  12              		.code	16
  13              		.file	"main.c"
  14              		.text
  15              	.Ltext0:
  16              		.cfi_sections	.debug_frame
  17              		.section	.text.updateLed,"ax",%progbits
  18              		.align	2
  19              		.global	updateLed
  20              		.code	16
  21              		.thumb_func
  22              		.type	updateLed, %function
  23              	updateLed:
  24              	.LFB37:
  25              		.file 1 "main.c"
   1:main.c        **** /* ========================================
   2:main.c        ****  *
   3:main.c        ****  * Copyright YOUR COMPANY, THE YEAR
   4:main.c        ****  * All Rights Reserved
   5:main.c        ****  * UNPUBLISHED, LICENSED SOFTWARE.
   6:main.c        ****  *
   7:main.c        ****  * CONFIDENTIAL AND PROPRIETARY INFORMATION
   8:main.c        ****  * WHICH IS THE PROPERTY OF your company.
   9:main.c        ****  *
  10:main.c        ****  * ========================================
  11:main.c        **** */
  12:main.c        **** #include <project.h>
  13:main.c        **** 
  14:main.c        **** uint8 sendNotifications; 	/* Flag to check notification enabled/disabled */
  15:main.c        **** CYBLE_API_RESULT_T	apiResult;  /*  variable to store BLE component API return */
  16:main.c        **** int16 result;
  17:main.c        **** //volatile uint32 windowFlag    = 0u;
  18:main.c        **** //volatile uint8  dataReady     = 0u;
  19:main.c        **** //CY_ISR_PROTO(ADC_ISR_Handler);
  20:main.c        **** void updateLed()
  21:main.c        **** {
  26              		.loc 1 21 0
  27              		.cfi_startproc
  28 0000 00B5     		push	{lr}
  29              		.cfi_def_cfa_offset 4
  30              		.cfi_offset 14, -4
  31 0002 85B0     		sub	sp, sp, #20
  32              		.cfi_def_cfa_offset 24
  22:main.c        ****     CYBLE_GATTS_HANDLE_VALUE_NTF_T 	tempHandle;
  23:main.c        ****    
  24:main.c        ****     uint8 LED_State = !LED_Read();
  33              		.loc 1 24 0
ARM GAS  C:\Users\Sanjay\AppData\Local\Temp\cckg63rX.s 			page 2


  34 0004 FFF7FEFF 		bl	LED_Read
  35              	.LVL0:
  36 0008 4342     		neg	r3, r0
  37 000a 4341     		adc	r3, r3, r0
  38 000c 6A46     		mov	r2, sp
  39 000e D370     		strb	r3, [r2, #3]
  40 0010 0332     		add	r2, r2, #3
  25:main.c        ****     
  26:main.c        ****     if(CyBle_GetState() != CYBLE_STATE_CONNECTED)
  41              		.loc 1 26 0
  42 0012 084B     		ldr	r3, .L4
  43 0014 1B78     		ldrb	r3, [r3]
  44 0016 022B     		cmp	r3, #2
  45 0018 0AD1     		bne	.L1
  27:main.c        ****         return;
  28:main.c        ****     
  29:main.c        ****     tempHandle.attrHandle = CYBLE_ADC_READ_LED_CHAR_HANDLE;
  46              		.loc 1 29 0
  47 001a 01A8     		add	r0, sp, #4
  48 001c 1433     		add	r3, r3, #20
  49 001e 0381     		strh	r3, [r0, #8]
  30:main.c        ****   	tempHandle.value.val = (uint8 *) &LED_State;
  50              		.loc 1 30 0
  51 0020 0192     		str	r2, [sp, #4]
  31:main.c        ****     tempHandle.value.len = 1;
  52              		.loc 1 31 0
  53 0022 0123     		mov	r3, #1
  54 0024 8380     		strh	r3, [r0, #4]
  32:main.c        ****     CyBle_GattsWriteAttributeValue(&tempHandle,0,&cyBle_connHandle,CYBLE_GATT_DB_LOCALLY_INITIATED)
  55              		.loc 1 32 0
  56 0026 0021     		mov	r1, #0
  57 0028 034A     		ldr	r2, .L4+4
  58 002a 0023     		mov	r3, #0
  59 002c FFF7FEFF 		bl	CyBle_GattsWriteAttributeValue
  60              	.LVL1:
  61              	.L1:
  33:main.c        **** }
  62              		.loc 1 33 0
  63 0030 05B0     		add	sp, sp, #20
  64              		@ sp needed
  65 0032 00BD     		pop	{pc}
  66              	.L5:
  67              		.align	2
  68              	.L4:
  69 0034 00000000 		.word	cyBle_state
  70 0038 00000000 		.word	cyBle_connHandle
  71              		.cfi_endproc
  72              	.LFE37:
  73              		.size	updateLed, .-updateLed
  74              		.section	.text.sendADCNotification,"ax",%progbits
  75              		.align	2
  76              		.global	sendADCNotification
  77              		.code	16
  78              		.thumb_func
  79              		.type	sendADCNotification, %function
  80              	sendADCNotification:
  81              	.LFB38:
ARM GAS  C:\Users\Sanjay\AppData\Local\Temp\cckg63rX.s 			page 3


  34:main.c        **** 
  35:main.c        **** void sendADCNotification(void)
  36:main.c        **** {
  82              		.loc 1 36 0
  83              		.cfi_startproc
  84 0000 00B5     		push	{lr}
  85              		.cfi_def_cfa_offset 4
  86              		.cfi_offset 14, -4
  87 0002 85B0     		sub	sp, sp, #20
  88              		.cfi_def_cfa_offset 24
  37:main.c        **** 	if(CyBle_GetState() != CYBLE_STATE_CONNECTED)
  89              		.loc 1 37 0
  90 0004 0E4B     		ldr	r3, .L10
  91 0006 1B78     		ldrb	r3, [r3]
  92 0008 022B     		cmp	r3, #2
  93 000a 17D1     		bne	.L6
  38:main.c        ****         return;
  39:main.c        ****     
  40:main.c        ****     /* stores  notification data parameters */
  41:main.c        **** 	CYBLE_GATTS_HANDLE_VALUE_NTF_T		ADCHandle;
  42:main.c        ****     /*
  43:main.c        **** 	if (sendNotifications)
  44:main.c        **** 	{
  45:main.c        **** 		//Package the notification data as part of I2C_read Characteristic
  46:main.c        **** 		ADCHandle.attrHandle = CYBLE_ADC_READ_ADC_READ_DATA_CHAR_HANDLE;
  47:main.c        **** 
  48:main.c        **** 		ADCHandle.value.val = result;
  49:main.c        **** 
  50:main.c        **** 		ADCHandle.value.len = 2;
  51:main.c        **** 
  52:main.c        **** 		//Send the I2C_read Characteristic to the client only when notification is enabled 
  53:main.c        **** 		do
  54:main.c        **** 		{
  55:main.c        **** 			apiResult = CyBle_GattsNotification(cyBle_connHandle, &ADCHandle);
  56:main.c        **** 
  57:main.c        **** 			CyBle_ProcessEvents();
  58:main.c        **** 
  59:main.c        **** 		} while ((CYBLE_ERROR_OK != apiResult) && (CYBLE_STATE_CONNECTED == cyBle_state));
  60:main.c        **** 
  61:main.c        **** 	}*/
  62:main.c        ****     
  63:main.c        ****     ADCHandle.attrHandle = CYBLE_ADC_READ_ADC_READ_DATA_CHAR_HANDLE;
  94              		.loc 1 63 0
  95 000c 01A8     		add	r0, sp, #4
  96 000e 1033     		add	r3, r3, #16
  97 0010 0381     		strh	r3, [r0, #8]
  64:main.c        **** 
  65:main.c        ****     ADCHandle.value.val = (uint8 *)&result;
  98              		.loc 1 65 0
  99 0012 0C4B     		ldr	r3, .L10+4
 100 0014 0193     		str	r3, [sp, #4]
  66:main.c        ****     
  67:main.c        **** 	ADCHandle.value.len = 2;
 101              		.loc 1 67 0
 102 0016 0223     		mov	r3, #2
 103 0018 8380     		strh	r3, [r0, #4]
  68:main.c        ****     CyBle_GattsWriteAttributeValue(&ADCHandle,0,&cyBle_connHandle,CYBLE_GATT_DB_LOCALLY_INITIATED )
ARM GAS  C:\Users\Sanjay\AppData\Local\Temp\cckg63rX.s 			page 4


 104              		.loc 1 68 0
 105 001a 0021     		mov	r1, #0
 106 001c 0A4A     		ldr	r2, .L10+8
 107 001e 0023     		mov	r3, #0
 108 0020 FFF7FEFF 		bl	CyBle_GattsWriteAttributeValue
 109              	.LVL2:
  69:main.c        ****     if (sendNotifications)
 110              		.loc 1 69 0
 111 0024 094B     		ldr	r3, .L10+12
 112 0026 1B78     		ldrb	r3, [r3]
 113 0028 002B     		cmp	r3, #0
 114 002a 07D0     		beq	.L6
  70:main.c        ****         CyBle_GattsNotification(cyBle_connHandle,&ADCHandle);        
 115              		.loc 1 70 0
 116 002c 064A     		ldr	r2, .L10+8
 117 002e 1378     		ldrb	r3, [r2]
 118 0030 5078     		ldrb	r0, [r2, #1]
 119 0032 0002     		lsl	r0, r0, #8
 120 0034 1843     		orr	r0, r3
 121 0036 01A9     		add	r1, sp, #4
 122 0038 FFF7FEFF 		bl	CyBle_GattsNotification
 123              	.LVL3:
 124              	.L6:
  71:main.c        **** }
 125              		.loc 1 71 0
 126 003c 05B0     		add	sp, sp, #20
 127              		@ sp needed
 128 003e 00BD     		pop	{pc}
 129              	.L11:
 130              		.align	2
 131              	.L10:
 132 0040 00000000 		.word	cyBle_state
 133 0044 00000000 		.word	result
 134 0048 00000000 		.word	cyBle_connHandle
 135 004c 00000000 		.word	sendNotifications
 136              		.cfi_endproc
 137              	.LFE38:
 138              		.size	sendADCNotification, .-sendADCNotification
 139              		.section	.text.AppCallBack,"ax",%progbits
 140              		.align	2
 141              		.global	AppCallBack
 142              		.code	16
 143              		.thumb_func
 144              		.type	AppCallBack, %function
 145              	AppCallBack:
 146              	.LFB39:
  72:main.c        **** 
  73:main.c        **** void AppCallBack(uint32 event, void *eventParam)
  74:main.c        **** {
 147              		.loc 1 74 0
 148              		.cfi_startproc
 149              	.LVL4:
 150 0000 38B5     		push	{r3, r4, r5, lr}
 151              		.cfi_def_cfa_offset 16
 152              		.cfi_offset 3, -16
 153              		.cfi_offset 4, -12
 154              		.cfi_offset 5, -8
ARM GAS  C:\Users\Sanjay\AppData\Local\Temp\cckg63rX.s 			page 5


 155              		.cfi_offset 14, -4
 156 0002 0C1C     		mov	r4, r1
  75:main.c        **** 	CYBLE_GATTS_WRITE_REQ_PARAM_T *wrReqParam;
  76:main.c        **** 
  77:main.c        **** 	switch (event)
 157              		.loc 1 77 0
 158 0004 2828     		cmp	r0, #40
 159 0006 08D0     		beq	.L14
 160 0008 02D8     		bhi	.L15
 161 000a 0128     		cmp	r0, #1
 162 000c 05D0     		beq	.L14
 163 000e 3FE0     		b	.L12
 164              	.L15:
 165 0010 4128     		cmp	r0, #65
 166 0012 09D0     		beq	.L16
 167 0014 4C28     		cmp	r0, #76
 168 0016 0CD0     		beq	.L17
 169 0018 3AE0     		b	.L12
 170              	.L14:
  78:main.c        **** 	{
  79:main.c        ****         case CYBLE_EVT_STACK_ON:
  80:main.c        ****         case CYBLE_EVT_GAP_DEVICE_DISCONNECTED:
  81:main.c        ****         sendNotifications = 0;
 171              		.loc 1 81 0
 172 001a 0022     		mov	r2, #0
 173 001c 1D4B     		ldr	r3, .L19
 174 001e 1A70     		strb	r2, [r3]
  82:main.c        ****         CyBle_GappStartAdvertisement(CYBLE_ADVERTISING_FAST);            
 175              		.loc 1 82 0
 176 0020 0020     		mov	r0, #0
 177              	.LVL5:
 178 0022 FFF7FEFF 		bl	CyBle_GappStartAdvertisement
 179              	.LVL6:
  83:main.c        ****         break;
 180              		.loc 1 83 0
 181 0026 33E0     		b	.L12
 182              	.LVL7:
 183              	.L16:
  84:main.c        **** 	
  85:main.c        ****         case CYBLE_EVT_GATT_CONNECT_IND:
  86:main.c        ****         updateLed();    
 184              		.loc 1 86 0
 185 0028 FFF7FEFF 		bl	updateLed
 186              	.LVL8:
  87:main.c        ****         sendADCNotification();  
 187              		.loc 1 87 0
 188 002c FFF7FEFF 		bl	sendADCNotification
 189              	.LVL9:
  88:main.c        **** 		break;
 190              		.loc 1 88 0
 191 0030 2EE0     		b	.L12
 192              	.LVL10:
 193              	.L17:
  89:main.c        **** 
  90:main.c        ****         case CYBLE_EVT_GATTS_WRITE_REQ:
  91:main.c        ****             wrReqParam = (CYBLE_GATTS_WRITE_REQ_PARAM_T *) eventParam;
  92:main.c        **** 			
ARM GAS  C:\Users\Sanjay\AppData\Local\Temp\cckg63rX.s 			page 6


  93:main.c        ****             /* request write the LED value */
  94:main.c        ****             if(wrReqParam->handleValPair.attrHandle == CYBLE_ADC_READ_LED_CHAR_HANDLE)
 194              		.loc 1 94 0
 195 0032 8B89     		ldrh	r3, [r1, #12]
 196 0034 162B     		cmp	r3, #22
 197 0036 15D1     		bne	.L18
  95:main.c        ****             {
  96:main.c        ****                 /* only update the value and write the response if the requested write is allowed *
  97:main.c        ****                 if(CYBLE_GATT_ERR_NONE == CyBle_GattsWriteAttributeValue(&wrReqParam->handleValPair
 198              		.loc 1 97 0
 199 0038 081D     		add	r0, r1, #4
 200              	.LVL11:
 201 003a 0021     		mov	r1, #0
 202              	.LVL12:
 203 003c 164A     		ldr	r2, .L19+4
 204 003e 0023     		mov	r3, #0
 205 0040 FFF7FEFF 		bl	CyBle_GattsWriteAttributeValue
 206              	.LVL13:
 207 0044 0028     		cmp	r0, #0
 208 0046 0DD1     		bne	.L18
  98:main.c        ****                 {
  99:main.c        ****                     LED_Write(!wrReqParam->handleValPair.value.val[0]);
 209              		.loc 1 99 0
 210 0048 6368     		ldr	r3, [r4, #4]
 211 004a 1B78     		ldrb	r3, [r3]
 212 004c 5842     		neg	r0, r3
 213 004e 5841     		adc	r0, r0, r3
 214 0050 C0B2     		uxtb	r0, r0
 215 0052 FFF7FEFF 		bl	LED_Write
 216              	.LVL14:
 100:main.c        ****                     CyBle_GattsWriteRsp(cyBle_connHandle);
 217              		.loc 1 100 0
 218 0056 104A     		ldr	r2, .L19+4
 219 0058 1378     		ldrb	r3, [r2]
 220 005a 5078     		ldrb	r0, [r2, #1]
 221 005c 0002     		lsl	r0, r0, #8
 222 005e 1843     		orr	r0, r3
 223 0060 FFF7FEFF 		bl	CyBle_GattsWriteRsp
 224              	.LVL15:
 225              	.L18:
 101:main.c        ****                 }
 102:main.c        ****             }
 103:main.c        ****                        
 104:main.c        ****             /* request to update the CapSense notification */
 105:main.c        ****             if(wrReqParam->handleValPair.attrHandle == CYBLE_ADC_READ_ADC_READ_DATA_ADC_READCCCD_DE
 226              		.loc 1 105 0
 227 0064 A389     		ldrh	r3, [r4, #12]
 228 0066 132B     		cmp	r3, #19
 229 0068 12D1     		bne	.L12
 106:main.c        ****             {
 107:main.c        ****                 CyBle_GattsWriteAttributeValue(&wrReqParam->handleValPair, 0, &cyBle_connHandle, CY
 230              		.loc 1 107 0
 231 006a 201D     		add	r0, r4, #4
 232 006c 0A4D     		ldr	r5, .L19+4
 233 006e 0021     		mov	r1, #0
 234 0070 2A1C     		mov	r2, r5
 235 0072 2D33     		add	r3, r3, #45
ARM GAS  C:\Users\Sanjay\AppData\Local\Temp\cckg63rX.s 			page 7


 236 0074 FFF7FEFF 		bl	CyBle_GattsWriteAttributeValue
 237              	.LVL16:
 108:main.c        ****                 sendNotifications = wrReqParam->handleValPair.value.val[0] & 0x01;
 238              		.loc 1 108 0
 239 0078 6368     		ldr	r3, [r4, #4]
 240 007a 1B78     		ldrb	r3, [r3]
 241 007c 0122     		mov	r2, #1
 242 007e 1340     		and	r3, r2
 243 0080 044A     		ldr	r2, .L19
 244 0082 1370     		strb	r3, [r2]
 109:main.c        ****                 CyBle_GattsWriteRsp(cyBle_connHandle);
 245              		.loc 1 109 0
 246 0084 2B78     		ldrb	r3, [r5]
 247 0086 6878     		ldrb	r0, [r5, #1]
 248 0088 0002     		lsl	r0, r0, #8
 249 008a 1843     		orr	r0, r3
 250 008c FFF7FEFF 		bl	CyBle_GattsWriteRsp
 251              	.LVL17:
 252              	.L12:
 110:main.c        ****             }		
 111:main.c        **** 		break;
 112:main.c        **** 		
 113:main.c        **** 
 114:main.c        **** 	default:
 115:main.c        **** 		break;
 116:main.c        **** 	}
 117:main.c        **** }
 253              		.loc 1 117 0
 254              		@ sp needed
 255              	.LVL18:
 256 0090 38BD     		pop	{r3, r4, r5, pc}
 257              	.L20:
 258 0092 C046     		.align	2
 259              	.L19:
 260 0094 00000000 		.word	sendNotifications
 261 0098 00000000 		.word	cyBle_connHandle
 262              		.cfi_endproc
 263              	.LFE39:
 264              		.size	AppCallBack, .-AppCallBack
 265              		.section	.text.main,"ax",%progbits
 266              		.align	2
 267              		.global	main
 268              		.code	16
 269              		.thumb_func
 270              		.type	main, %function
 271              	main:
 272              	.LFB40:
 118:main.c        **** 
 119:main.c        **** int main(void)
 120:main.c        **** {
 273              		.loc 1 120 0
 274              		.cfi_startproc
 275 0000 08B5     		push	{r3, lr}
 276              		.cfi_def_cfa_offset 8
 277              		.cfi_offset 3, -8
 278              		.cfi_offset 14, -4
 121:main.c        ****     /* Place your initialization/startup code here (e.g. MyInst_Start()) */
ARM GAS  C:\Users\Sanjay\AppData\Local\Temp\cckg63rX.s 			page 8


 122:main.c        ****     op1_Start();
 279              		.loc 1 122 0
 280 0002 FFF7FEFF 		bl	op1_Start
 281              	.LVL19:
 123:main.c        ****     op2_Start();
 282              		.loc 1 123 0
 283 0006 FFF7FEFF 		bl	op2_Start
 284              	.LVL20:
 124:main.c        ****     op3_Start();
 285              		.loc 1 124 0
 286 000a FFF7FEFF 		bl	op3_Start
 287              	.LVL21:
 125:main.c        ****     op4_Start();
 288              		.loc 1 125 0
 289 000e FFF7FEFF 		bl	op4_Start
 290              	.LVL22:
 126:main.c        ****     ADC_Start();
 291              		.loc 1 126 0
 292 0012 FFF7FEFF 		bl	ADC_Start
 293              	.LVL23:
 127:main.c        ****     //ADC_IRQ_StartEx(ADC_ISR_Handler);
 128:main.c        ****     CyGlobalIntEnable; /* Enable global interrupts. */
 294              		.loc 1 128 0
 295              	@ 128 "main.c" 1
 296 0016 62B6     		CPSIE   i
 297              	@ 0 "" 2
 129:main.c        ****     ADC_StartConvert();           
 298              		.loc 1 129 0
 299              		.code	16
 300 0018 FFF7FEFF 		bl	ADC_StartConvert
 301              	.LVL24:
 130:main.c        ****     CyBle_Start(AppCallBack);
 302              		.loc 1 130 0
 303 001c 0948     		ldr	r0, .L24
 304 001e FFF7FEFF 		bl	CyBle_Start
 305              	.LVL25:
 306              	.L23:
 131:main.c        ****     for(;;)
 132:main.c        ****     {
 133:main.c        ****         /* Place your application code here. */
 134:main.c        ****         CyBle_ProcessEvents();
 307              		.loc 1 134 0
 308 0022 FFF7FEFF 		bl	CyBle_ProcessEvents
 309              	.LVL26:
 135:main.c        **** 		 
 136:main.c        **** 	    if (ADC_IsEndConversion(ADC_RETURN_STATUS))
 310              		.loc 1 136 0
 311 0026 0120     		mov	r0, #1
 312 0028 FFF7FEFF 		bl	ADC_IsEndConversion
 313              	.LVL27:
 314 002c 0028     		cmp	r0, #0
 315 002e 06D0     		beq	.L22
 137:main.c        ****         {
 138:main.c        ****         //while(dataReady == 0u)
 139:main.c        ****         //{
 140:main.c        ****         //    ; 
 141:main.c        ****         //}    
ARM GAS  C:\Users\Sanjay\AppData\Local\Temp\cckg63rX.s 			page 9


 142:main.c        ****             result = ADC_GetResult16(0);            
 316              		.loc 1 142 0
 317 0030 0020     		mov	r0, #0
 318 0032 FFF7FEFF 		bl	ADC_GetResult16
 319              	.LVL28:
 320 0036 044B     		ldr	r3, .L24+4
 321 0038 1880     		strh	r0, [r3]
 143:main.c        ****             sendADCNotification();
 322              		.loc 1 143 0
 323 003a FFF7FEFF 		bl	sendADCNotification
 324              	.LVL29:
 325              	.L22:
 144:main.c        ****         }
 145:main.c        ****         CyBle_ProcessEvents();
 326              		.loc 1 145 0
 327 003e FFF7FEFF 		bl	CyBle_ProcessEvents
 328              	.LVL30:
 146:main.c        ****         //dataReady = 0u;
 147:main.c        ****     }
 329              		.loc 1 147 0
 330 0042 EEE7     		b	.L23
 331              	.L25:
 332              		.align	2
 333              	.L24:
 334 0044 00000000 		.word	AppCallBack
 335 0048 00000000 		.word	result
 336              		.cfi_endproc
 337              	.LFE40:
 338              		.size	main, .-main
 339              		.comm	result,2,2
 340              		.comm	apiResult,2,2
 341              		.comm	sendNotifications,1,1
 342              		.text
 343              	.Letext0:
 344              		.file 2 "Generated_Source\\PSoC4/cytypes.h"
 345              		.file 3 "Generated_Source\\PSoC4/BLE_Stack.h"
 346              		.file 4 "Generated_Source\\PSoC4/BLE_StackGatt.h"
 347              		.file 5 "Generated_Source\\PSoC4/BLE_StackGattServer.h"
 348              		.file 6 "Generated_Source\\PSoC4/BLE.h"
 349              		.file 7 "Generated_Source\\PSoC4/BLE_eventHandler.h"
 350              		.file 8 "Generated_Source\\PSoC4/BLE_StackGattDb.h"
 351              		.file 9 "Generated_Source\\PSoC4/op1.h"
 352              		.file 10 "Generated_Source\\PSoC4/op2.h"
 353              		.file 11 "Generated_Source\\PSoC4/op3.h"
 354              		.file 12 "Generated_Source\\PSoC4/op4.h"
 355              		.file 13 "Generated_Source\\PSoC4/ADC.h"
 356              		.file 14 "Generated_Source\\PSoC4/LED.h"