ARM GAS  C:\Users\Sanjay\AppData\Local\Temp\ccd2MEtt.s 			page 1


   1              		.cpu cortex-m0
   2              		.fpu softvfp
   3              		.eabi_attribute 20, 1
   4              		.eabi_attribute 21, 1
   5              		.eabi_attribute 23, 3
   6              		.eabi_attribute 24, 1
   7              		.eabi_attribute 25, 1
   8              		.eabi_attribute 26, 1
   9              		.eabi_attribute 30, 1
  10              		.eabi_attribute 34, 0
  11              		.eabi_attribute 18, 4
  12              		.code	16
  13              		.file	"main.c"
  14              		.text
  15              	.Ltext0:
  16              		.cfi_sections	.debug_frame
  17              		.section	.text.sendADCNotification,"ax",%progbits
  18              		.align	2
  19              		.global	sendADCNotification
  20              		.code	16
  21              		.thumb_func
  22              		.type	sendADCNotification, %function
  23              	sendADCNotification:
  24              	.LFB37:
  25              		.file 1 "main.c"
   1:main.c        **** /* ========================================
   2:main.c        ****  *
   3:main.c        ****  * Copyright YOUR COMPANY, THE YEAR
   4:main.c        ****  * All Rights Reserved
   5:main.c        ****  * UNPUBLISHED, LICENSED SOFTWARE.
   6:main.c        ****  *
   7:main.c        ****  * CONFIDENTIAL AND PROPRIETARY INFORMATION
   8:main.c        ****  * WHICH IS THE PROPERTY OF your company.
   9:main.c        ****  *
  10:main.c        ****  * ========================================
  11:main.c        **** */
  12:main.c        **** #include <project.h>
  13:main.c        **** 
  14:main.c        **** uint8 sendNotifications; 	/* Flag to check notification enabled/disabled */
  15:main.c        **** CYBLE_API_RESULT_T	apiResult;  /*  variable to store BLE component API return */
  16:main.c        **** int16 result;
  17:main.c        **** //volatile uint32 windowFlag    = 0u;
  18:main.c        **** //volatile uint8  dataReady     = 0u;
  19:main.c        **** //CY_ISR_PROTO(ADC_ISR_Handler);
  20:main.c        **** void sendADCNotification(void)
  21:main.c        **** {
  26              		.loc 1 21 0
  27              		.cfi_startproc
  28 0000 00B5     		push	{lr}
  29              		.cfi_def_cfa_offset 4
  30              		.cfi_offset 14, -4
  31 0002 85B0     		sub	sp, sp, #20
  32              		.cfi_def_cfa_offset 24
  22:main.c        **** 	if(CyBle_GetState() != CYBLE_STATE_CONNECTED)
  33              		.loc 1 22 0
  34 0004 0E4B     		ldr	r3, .L5
  35 0006 1B78     		ldrb	r3, [r3]
ARM GAS  C:\Users\Sanjay\AppData\Local\Temp\ccd2MEtt.s 			page 2


  36 0008 022B     		cmp	r3, #2
  37 000a 17D1     		bne	.L1
  23:main.c        ****         return;
  24:main.c        ****     
  25:main.c        ****     /* stores  notification data parameters */
  26:main.c        **** 	CYBLE_GATTS_HANDLE_VALUE_NTF_T		ADCHandle;
  27:main.c        ****     /*
  28:main.c        **** 	if (sendNotifications)
  29:main.c        **** 	{
  30:main.c        **** 		//Package the notification data as part of I2C_read Characteristic
  31:main.c        **** 		ADCHandle.attrHandle = CYBLE_ADC_READ_ADC_READ_DATA_CHAR_HANDLE;
  32:main.c        **** 
  33:main.c        **** 		ADCHandle.value.val = result;
  34:main.c        **** 
  35:main.c        **** 		ADCHandle.value.len = 2;
  36:main.c        **** 
  37:main.c        **** 		//Send the I2C_read Characteristic to the client only when notification is enabled 
  38:main.c        **** 		do
  39:main.c        **** 		{
  40:main.c        **** 			apiResult = CyBle_GattsNotification(cyBle_connHandle, &ADCHandle);
  41:main.c        **** 
  42:main.c        **** 			CyBle_ProcessEvents();
  43:main.c        **** 
  44:main.c        **** 		} while ((CYBLE_ERROR_OK != apiResult) && (CYBLE_STATE_CONNECTED == cyBle_state));
  45:main.c        **** 
  46:main.c        **** 	}*/
  47:main.c        ****     
  48:main.c        ****     ADCHandle.attrHandle = CYBLE_ADC_READ_ADC_READ_DATA_CHAR_HANDLE;
  38              		.loc 1 48 0
  39 000c 01A8     		add	r0, sp, #4
  40 000e 1033     		add	r3, r3, #16
  41 0010 0381     		strh	r3, [r0, #8]
  49:main.c        **** 
  50:main.c        ****     ADCHandle.value.val = (uint8 *)&result;
  42              		.loc 1 50 0
  43 0012 0C4B     		ldr	r3, .L5+4
  44 0014 0193     		str	r3, [sp, #4]
  51:main.c        ****     
  52:main.c        **** 	ADCHandle.value.len = 2;
  45              		.loc 1 52 0
  46 0016 0223     		mov	r3, #2
  47 0018 8380     		strh	r3, [r0, #4]
  53:main.c        ****     CyBle_GattsWriteAttributeValue(&ADCHandle,0,&cyBle_connHandle,CYBLE_GATT_DB_LOCALLY_INITIATED )
  48              		.loc 1 53 0
  49 001a 0021     		mov	r1, #0
  50 001c 0A4A     		ldr	r2, .L5+8
  51 001e 0023     		mov	r3, #0
  52 0020 FFF7FEFF 		bl	CyBle_GattsWriteAttributeValue
  53              	.LVL0:
  54:main.c        ****     if (sendNotifications)
  54              		.loc 1 54 0
  55 0024 094B     		ldr	r3, .L5+12
  56 0026 1B78     		ldrb	r3, [r3]
  57 0028 002B     		cmp	r3, #0
  58 002a 07D0     		beq	.L1
  55:main.c        ****         CyBle_GattsNotification(cyBle_connHandle,&ADCHandle);        
  59              		.loc 1 55 0
ARM GAS  C:\Users\Sanjay\AppData\Local\Temp\ccd2MEtt.s 			page 3


  60 002c 064A     		ldr	r2, .L5+8
  61 002e 1378     		ldrb	r3, [r2]
  62 0030 5078     		ldrb	r0, [r2, #1]
  63 0032 0002     		lsl	r0, r0, #8
  64 0034 1843     		orr	r0, r3
  65 0036 01A9     		add	r1, sp, #4
  66 0038 FFF7FEFF 		bl	CyBle_GattsNotification
  67              	.LVL1:
  68              	.L1:
  56:main.c        **** }
  69              		.loc 1 56 0
  70 003c 05B0     		add	sp, sp, #20
  71              		@ sp needed
  72 003e 00BD     		pop	{pc}
  73              	.L6:
  74              		.align	2
  75              	.L5:
  76 0040 00000000 		.word	cyBle_state
  77 0044 00000000 		.word	result
  78 0048 00000000 		.word	cyBle_connHandle
  79 004c 00000000 		.word	sendNotifications
  80              		.cfi_endproc
  81              	.LFE37:
  82              		.size	sendADCNotification, .-sendADCNotification
  83              		.section	.text.AppCallBack,"ax",%progbits
  84              		.align	2
  85              		.global	AppCallBack
  86              		.code	16
  87              		.thumb_func
  88              		.type	AppCallBack, %function
  89              	AppCallBack:
  90              	.LFB38:
  57:main.c        **** 
  58:main.c        **** void AppCallBack(uint32 event, void *eventParam)
  59:main.c        **** {
  91              		.loc 1 59 0
  92              		.cfi_startproc
  93              	.LVL2:
  94 0000 38B5     		push	{r3, r4, r5, lr}
  95              		.cfi_def_cfa_offset 16
  96              		.cfi_offset 3, -16
  97              		.cfi_offset 4, -12
  98              		.cfi_offset 5, -8
  99              		.cfi_offset 14, -4
 100 0002 0C1C     		mov	r4, r1
  60:main.c        **** 	CYBLE_GATTS_WRITE_REQ_PARAM_T *wrReqParam;
  61:main.c        **** 
  62:main.c        **** 	switch (event)
 101              		.loc 1 62 0
 102 0004 2828     		cmp	r0, #40
 103 0006 08D0     		beq	.L9
 104 0008 02D8     		bhi	.L10
 105 000a 0128     		cmp	r0, #1
 106 000c 05D0     		beq	.L9
 107 000e 24E0     		b	.L7
 108              	.L10:
 109 0010 4128     		cmp	r0, #65
ARM GAS  C:\Users\Sanjay\AppData\Local\Temp\ccd2MEtt.s 			page 4


 110 0012 09D0     		beq	.L11
 111 0014 4C28     		cmp	r0, #76
 112 0016 0AD0     		beq	.L12
 113 0018 1FE0     		b	.L7
 114              	.L9:
  63:main.c        **** 	{
  64:main.c        ****         case CYBLE_EVT_STACK_ON:
  65:main.c        ****         case CYBLE_EVT_GAP_DEVICE_DISCONNECTED:
  66:main.c        ****         sendNotifications = 0;
 115              		.loc 1 66 0
 116 001a 0022     		mov	r2, #0
 117 001c 0F4B     		ldr	r3, .L13
 118 001e 1A70     		strb	r2, [r3]
  67:main.c        ****         CyBle_GappStartAdvertisement(CYBLE_ADVERTISING_FAST);            
 119              		.loc 1 67 0
 120 0020 0020     		mov	r0, #0
 121              	.LVL3:
 122 0022 FFF7FEFF 		bl	CyBle_GappStartAdvertisement
 123              	.LVL4:
  68:main.c        ****         break;
 124              		.loc 1 68 0
 125 0026 18E0     		b	.L7
 126              	.LVL5:
 127              	.L11:
  69:main.c        **** 	
  70:main.c        ****         case CYBLE_EVT_GATT_CONNECT_IND:
  71:main.c        ****             sendADCNotification();  
 128              		.loc 1 71 0
 129 0028 FFF7FEFF 		bl	sendADCNotification
 130              	.LVL6:
  72:main.c        **** 		break;
 131              		.loc 1 72 0
 132 002c 15E0     		b	.L7
 133              	.LVL7:
 134              	.L12:
  73:main.c        **** 
  74:main.c        ****         case CYBLE_EVT_GATTS_WRITE_REQ:
  75:main.c        ****             wrReqParam = (CYBLE_GATTS_WRITE_REQ_PARAM_T *) eventParam;
  76:main.c        **** 			      
  77:main.c        ****                        
  78:main.c        ****             /* request to update the CapSense notification */
  79:main.c        ****             if(wrReqParam->handleValPair.attrHandle == CYBLE_ADC_READ_ADC_READ_DATA_ADC_READCCCD_DE
 135              		.loc 1 79 0
 136 002e 8B89     		ldrh	r3, [r1, #12]
 137 0030 132B     		cmp	r3, #19
 138 0032 12D1     		bne	.L7
  80:main.c        ****             {
  81:main.c        ****                 CyBle_GattsWriteAttributeValue(&wrReqParam->handleValPair, 0, &cyBle_connHandle, CY
 139              		.loc 1 81 0
 140 0034 081D     		add	r0, r1, #4
 141              	.LVL8:
 142 0036 0A4D     		ldr	r5, .L13+4
 143 0038 0021     		mov	r1, #0
 144              	.LVL9:
 145 003a 2A1C     		mov	r2, r5
 146 003c 2D33     		add	r3, r3, #45
 147 003e FFF7FEFF 		bl	CyBle_GattsWriteAttributeValue
ARM GAS  C:\Users\Sanjay\AppData\Local\Temp\ccd2MEtt.s 			page 5


 148              	.LVL10:
  82:main.c        ****                 sendNotifications = wrReqParam->handleValPair.value.val[0] & 0x01;
 149              		.loc 1 82 0
 150 0042 6368     		ldr	r3, [r4, #4]
 151 0044 1B78     		ldrb	r3, [r3]
 152 0046 0122     		mov	r2, #1
 153 0048 1340     		and	r3, r2
 154 004a 044A     		ldr	r2, .L13
 155 004c 1370     		strb	r3, [r2]
  83:main.c        ****                 CyBle_GattsWriteRsp(cyBle_connHandle);
 156              		.loc 1 83 0
 157 004e 2B78     		ldrb	r3, [r5]
 158 0050 6878     		ldrb	r0, [r5, #1]
 159 0052 0002     		lsl	r0, r0, #8
 160 0054 1843     		orr	r0, r3
 161 0056 FFF7FEFF 		bl	CyBle_GattsWriteRsp
 162              	.LVL11:
 163              	.L7:
  84:main.c        ****             }		
  85:main.c        **** 		break;
  86:main.c        **** 		
  87:main.c        **** 
  88:main.c        **** 	default:
  89:main.c        **** 		break;
  90:main.c        **** 	}
  91:main.c        **** }
 164              		.loc 1 91 0
 165              		@ sp needed
 166              	.LVL12:
 167 005a 38BD     		pop	{r3, r4, r5, pc}
 168              	.L14:
 169              		.align	2
 170              	.L13:
 171 005c 00000000 		.word	sendNotifications
 172 0060 00000000 		.word	cyBle_connHandle
 173              		.cfi_endproc
 174              	.LFE38:
 175              		.size	AppCallBack, .-AppCallBack
 176              		.section	.text.main,"ax",%progbits
 177              		.align	2
 178              		.global	main
 179              		.code	16
 180              		.thumb_func
 181              		.type	main, %function
 182              	main:
 183              	.LFB39:
  92:main.c        **** 
  93:main.c        **** int main(void)
  94:main.c        **** {
 184              		.loc 1 94 0
 185              		.cfi_startproc
 186 0000 08B5     		push	{r3, lr}
 187              		.cfi_def_cfa_offset 8
 188              		.cfi_offset 3, -8
 189              		.cfi_offset 14, -4
  95:main.c        ****     /* Place your initialization/startup code here (e.g. MyInst_Start()) */
  96:main.c        ****     op1_Start();
ARM GAS  C:\Users\Sanjay\AppData\Local\Temp\ccd2MEtt.s 			page 6


 190              		.loc 1 96 0
 191 0002 FFF7FEFF 		bl	op1_Start
 192              	.LVL13:
  97:main.c        ****     op2_Start();
 193              		.loc 1 97 0
 194 0006 FFF7FEFF 		bl	op2_Start
 195              	.LVL14:
  98:main.c        ****     op3_Start();
 196              		.loc 1 98 0
 197 000a FFF7FEFF 		bl	op3_Start
 198              	.LVL15:
  99:main.c        ****     op4_Start();
 199              		.loc 1 99 0
 200 000e FFF7FEFF 		bl	op4_Start
 201              	.LVL16:
 100:main.c        ****     ADC_Start();
 202              		.loc 1 100 0
 203 0012 FFF7FEFF 		bl	ADC_Start
 204              	.LVL17:
 101:main.c        ****     //ADC_IRQ_StartEx(ADC_ISR_Handler);
 102:main.c        ****     CyGlobalIntEnable; /* Enable global interrupts. */
 205              		.loc 1 102 0
 206              	@ 102 "main.c" 1
 207 0016 62B6     		CPSIE   i
 208              	@ 0 "" 2
 103:main.c        ****     ADC_StartConvert();           
 209              		.loc 1 103 0
 210              		.code	16
 211 0018 FFF7FEFF 		bl	ADC_StartConvert
 212              	.LVL18:
 104:main.c        ****     CyBle_Start(AppCallBack);
 213              		.loc 1 104 0
 214 001c 0948     		ldr	r0, .L18
 215 001e FFF7FEFF 		bl	CyBle_Start
 216              	.LVL19:
 217              	.L17:
 105:main.c        ****     for(;;)
 106:main.c        ****     {
 107:main.c        ****         /* Place your application code here. */
 108:main.c        ****         CyBle_ProcessEvents();
 218              		.loc 1 108 0
 219 0022 FFF7FEFF 		bl	CyBle_ProcessEvents
 220              	.LVL20:
 109:main.c        **** 		 
 110:main.c        **** 	    if (ADC_IsEndConversion(ADC_RETURN_STATUS))
 221              		.loc 1 110 0
 222 0026 0120     		mov	r0, #1
 223 0028 FFF7FEFF 		bl	ADC_IsEndConversion
 224              	.LVL21:
 225 002c 0028     		cmp	r0, #0
 226 002e 06D0     		beq	.L16
 111:main.c        ****         {
 112:main.c        ****         //while(dataReady == 0u)
 113:main.c        ****         //{
 114:main.c        ****         //    ; 
 115:main.c        ****         //}    
 116:main.c        ****             result = ADC_GetResult16(0);            
ARM GAS  C:\Users\Sanjay\AppData\Local\Temp\ccd2MEtt.s 			page 7


 227              		.loc 1 116 0
 228 0030 0020     		mov	r0, #0
 229 0032 FFF7FEFF 		bl	ADC_GetResult16
 230              	.LVL22:
 231 0036 044B     		ldr	r3, .L18+4
 232 0038 1880     		strh	r0, [r3]
 117:main.c        ****             sendADCNotification();
 233              		.loc 1 117 0
 234 003a FFF7FEFF 		bl	sendADCNotification
 235              	.LVL23:
 236              	.L16:
 118:main.c        ****         }
 119:main.c        ****         CyBle_ProcessEvents();
 237              		.loc 1 119 0
 238 003e FFF7FEFF 		bl	CyBle_ProcessEvents
 239              	.LVL24:
 120:main.c        ****         //dataReady = 0u;
 121:main.c        ****     }
 240              		.loc 1 121 0
 241 0042 EEE7     		b	.L17
 242              	.L19:
 243              		.align	2
 244              	.L18:
 245 0044 00000000 		.word	AppCallBack
 246 0048 00000000 		.word	result
 247              		.cfi_endproc
 248              	.LFE39:
 249              		.size	main, .-main
 250              		.comm	result,2,2
 251              		.comm	apiResult,2,2
 252              		.comm	sendNotifications,1,1
 253              		.text
 254              	.Letext0:
 255              		.file 2 "Generated_Source\\PSoC4/cytypes.h"
 256              		.file 3 "Generated_Source\\PSoC4/BLE_Stack.h"
 257              		.file 4 "Generated_Source\\PSoC4/BLE_StackGatt.h"
 258              		.file 5 "Generated_Source\\PSoC4/BLE_StackGattServer.h"
 259              		.file 6 "Generated_Source\\PSoC4/BLE.h"
 260              		.file 7 "Generated_Source\\PSoC4/BLE_eventHandler.h"
 261              		.file 8 "Generated_Source\\PSoC4/BLE_StackGattDb.h"
 262              		.file 9 "Generated_Source\\PSoC4/op1.h"
 263              		.file 10 "Generated_Source\\PSoC4/op2.h"
 264              		.file 11 "Generated_Source\\PSoC4/op3.h"
 265              		.file 12 "Generated_Source\\PSoC4/op4.h"
 266              		.file 13 "Generated_Source\\PSoC4/ADC.h"